; Function Attrs: mustprogress nounwind uwtable
define void @fstReaderResetScope(ptr noundef captures(address_is_null) %0) local_unnamed_addr #0 {
  %.not = icmp eq ptr %0, null
  br i1 %.not, label %.loopexit, label %.split

.split:                                           ; preds = %1
  %2 = getelementptr inbounds nuw i8, ptr %0, i64 632
  %3 = load ptr, ptr %2, align 8, !tbaa !129
  %.not18.i = icmp eq ptr %3, null
  br i1 %.not18.i, label %.loopexit, label %4

4:                                                ; preds = %.split
  %5 = load ptr, ptr %3, align 8, !tbaa !132
  %.not19.i = icmp eq ptr %5, null
  %6 = getelementptr inbounds nuw i8, ptr %0, i64 648
  %7 = load ptr, ptr %6, align 8, !tbaa !124
  br i1 %.not19.i, label %13, label %8

8:                                                ; preds = %4
  %9 = getelementptr inbounds nuw i8, ptr %5, i64 16
  %10 = load i32, ptr %9, align 8, !tbaa !133
  %11 = sext i32 %10 to i64
  %12 = getelementptr inbounds i8, ptr %7, i64 %11
  store i8 0, ptr %12, align 1, !tbaa !6
  br label %.split3.lr.ph

13:                                               ; preds = %4
  store i8 0, ptr %7, align 1, !tbaa !6
  br label %.split3.lr.ph

.split3.lr.ph:                                    ; preds = %13, %8
  %14 = load ptr, ptr %2, align 8, !tbaa !129
  %15 = load ptr, ptr %14, align 8, !tbaa !132
  store ptr %15, ptr %2, align 8, !tbaa !129
  tail call void @free(ptr noundef nonnull %3) #39
  %16 = getelementptr inbounds nuw i8, ptr %0, i64 648
  %17 = load ptr, ptr %2, align 8, !tbaa !129
  %18 = icmp eq ptr %17, null
  br i1 %18, label %.loopexit, label %.split3.preheader

.split3thread-pre-split:                          ; preds = %29, %24
  %19 = load ptr, ptr %2, align 8, !tbaa !129
  %20 = load ptr, ptr %19, align 8, !tbaa !132
  store ptr %20, ptr %2, align 8, !tbaa !129
  tail call void @free(ptr noundef nonnull %21) #39
  %.pr = load ptr, ptr %2, align 8, !tbaa !129
  %.not18.i6 = icmp eq ptr %.pr, null
  br i1 %.not18.i6, label %.loopexit, label %.split3.preheader

.split3.preheader:                                ; preds = %.split3.lr.ph, %.split3thread-pre-split
  %21 = phi ptr [ %.pr, %.split3thread-pre-split ], [ %17, %.split3.lr.ph ]
  %22 = load ptr, ptr %21, align 8, !tbaa !132
  %.not19.i7 = icmp eq ptr %22, null
  %23 = load ptr, ptr %16, align 8, !tbaa !124
  br i1 %.not19.i7, label %29, label %24

24:                                               ; preds = %.split3.preheader
  %25 = getelementptr inbounds nuw i8, ptr %22, i64 16
  %26 = load i32, ptr %25, align 8, !tbaa !133
  %27 = sext i32 %26 to i64
  %28 = getelementptr inbounds i8, ptr %23, i64 %27
  store i8 0, ptr %28, align 1, !tbaa !6
  br label %.split3thread-pre-split

29:                                               ; preds = %.split3.preheader
  store i8 0, ptr %23, align 1, !tbaa !6
  br label %.split3thread-pre-split

.loopexit:                                        ; preds = %.split3thread-pre-split, %.split, %.split3.lr.ph, %1
  ret void
}